; Function Attrs: mustprogress uwtable
define hidden noundef zeroext i1 @_ZN18OpenImageIO_v2_6_08ICOInput20read_native_scanlineEiiiiPv(ptr noundef nonnull align 8 dereferenceable(312) %this, i32 noundef %subimage, i32 noundef %miplevel, i32 noundef %y, i32 %0, ptr nocapture noundef writeonly %data) unnamed_addr #5 align 2 personality ptr @__gxx_personality_v0 {
entry:
  tail call void @_ZNK18OpenImageIO_v2_6_010ImageInput4lockEv(ptr noundef nonnull align 8 dereferenceable(184) %this)
  %call = invoke noundef zeroext i1 @_ZN18OpenImageIO_v2_6_08ICOInput13seek_subimageEii(ptr noundef nonnull align 8 dereferenceable(312) %this, i32 noundef %subimage, i32 noundef %miplevel)
          to label %invoke.cont unwind label %lpad

invoke.cont:                                      ; preds = %entry
  br i1 %call, label %if.end, label %cleanup

lpad:                                             ; preds = %if.then3, %entry
  %1 = landingpad { ptr, i32 }
          cleanup
  invoke void @_ZNK18OpenImageIO_v2_6_010ImageInput6unlockEv(ptr noundef nonnull align 8 dereferenceable(184) %this)
          to label %_ZNSt10lock_guardIRKN18OpenImageIO_v2_6_010ImageInputEED2Ev.exit unwind label %terminate.lpad.i

terminate.lpad.i:                                 ; preds = %lpad
  %2 = landingpad { ptr, i32 }
          catch ptr null
  %3 = extractvalue { ptr, i32 } %2, 0
  tail call void @__clang_call_terminate(ptr %3) #30
  unreachable

_ZNSt10lock_guardIRKN18OpenImageIO_v2_6_010ImageInputEED2Ev.exit: ; preds = %lpad
  resume { ptr, i32 } %1

if.end:                                           ; preds = %invoke.cont
  %m_buf = getelementptr inbounds i8, ptr %this, i64 224
  %4 = load ptr, ptr %m_buf, align 8
  %_M_finish.i.i = getelementptr inbounds i8, ptr %this, i64 232
  %5 = load ptr, ptr %_M_finish.i.i, align 8
  %cmp.i.i = icmp eq ptr %4, %5
  br i1 %cmp.i.i, label %if.then3, label %if.end8

if.then3:                                         ; preds = %if.end
  %call5 = invoke noundef zeroext i1 @_ZN18OpenImageIO_v2_6_08ICOInput7readimgEv(ptr noundef nonnull align 8 dereferenceable(312) %this)
          to label %invoke.cont4 unwind label %lpad

invoke.cont4:                                     ; preds = %if.then3
  br i1 %call5, label %if.end8, label %cleanup

if.end8:                                          ; preds = %invoke.cont4, %if.end
  %m_spec.i = getelementptr inbounds i8, ptr %this, i64 8
  %call11 = tail call noundef i64 @_ZNK18OpenImageIO_v2_6_09ImageSpec14scanline_bytesEb(ptr noundef nonnull align 8 dereferenceable(160) %m_spec.i, i1 noundef zeroext false) #24
  %conv = sext i32 %y to i64
  %mul = mul i64 %call11, %conv
  %6 = load ptr, ptr %m_buf, align 8
  %add.ptr.i = getelementptr inbounds i8, ptr %6, i64 %mul
  tail call void @llvm.memcpy.p0.p0.i64(ptr align 1 %data, ptr nonnull align 1 %add.ptr.i, i64 %call11, i1 false)
  br label %cleanup

cleanup:                                          ; preds = %invoke.cont4, %invoke.cont, %if.end8
  %retval.0 = phi i1 [ true, %if.end8 ], [ false, %invoke.cont ], [ false, %invoke.cont4 ]
  invoke void @_ZNK18OpenImageIO_v2_6_010ImageInput6unlockEv(ptr noundef nonnull align 8 dereferenceable(184) %this)
          to label %_ZNSt10lock_guardIRKN18OpenImageIO_v2_6_010ImageInputEED2Ev.exit3 unwind label %terminate.lpad.i2

terminate.lpad.i2:                                ; preds = %cleanup
  %7 = landingpad { ptr, i32 }
          catch ptr null
  %8 = extractvalue { ptr, i32 } %7, 0
  tail call void @__clang_call_terminate(ptr %8) #30
  unreachable

_ZNSt10lock_guardIRKN18OpenImageIO_v2_6_010ImageInputEED2Ev.exit3: ; preds = %cleanup
  ret i1 %retval.0
}